target datalayout = "e-m:e-p270:32:32-p271:32:32-p272:64:64-i64:64-i128:128-f80:128-n8:16:32:64-S128"
target triple = "x86_64-pc-linux-gnu"

%struct.ObjectAddress = type { i32, i32, i32 }

; Function Attrs: nounwind uwtable
define internal i32 @object_address_comparator(ptr noundef %0, ptr noundef %1) #0 {
  %3 = alloca i32, align 4
  %4 = alloca ptr, align 8
  %5 = alloca ptr, align 8
  %6 = alloca ptr, align 8
  %7 = alloca ptr, align 8
  %8 = alloca i32, align 4
  store ptr %0, ptr %4, align 8
  store ptr %1, ptr %5, align 8
  call void @llvm.lifetime.start.p0(i64 8, ptr %6) #8
  %9 = load ptr, ptr %4, align 8
  store ptr %9, ptr %6, align 8
  call void @llvm.lifetime.start.p0(i64 8, ptr %7) #8
  %10 = load ptr, ptr %5, align 8
  store ptr %10, ptr %7, align 8
  %11 = load ptr, ptr %6, align 8
  %12 = getelementptr inbounds nuw %struct.ObjectAddress, ptr %11, i32 0, i32 1
  %13 = load i32, ptr %12, align 4
  %14 = load ptr, ptr %7, align 8
  %15 = getelementptr inbounds nuw %struct.ObjectAddress, ptr %14, i32 0, i32 1
  %16 = load i32, ptr %15, align 4
  %17 = icmp ugt i32 %13, %16
  br i1 %17, label %18, label %19

18:                                               ; preds = %2
  store i32 -1, ptr %3, align 4
  store i32 1, ptr %8, align 4
  br label %65

19:                                               ; preds = %2
  %20 = load ptr, ptr %6, align 8
  %21 = getelementptr inbounds nuw %struct.ObjectAddress, ptr %20, i32 0, i32 1
  %22 = load i32, ptr %21, align 4
  %23 = load ptr, ptr %7, align 8
  %24 = getelementptr inbounds nuw %struct.ObjectAddress, ptr %23, i32 0, i32 1
  %25 = load i32, ptr %24, align 4
  %26 = icmp ult i32 %22, %25
  br i1 %26, label %27, label %28

27:                                               ; preds = %19
  store i32 1, ptr %3, align 4
  store i32 1, ptr %8, align 4
  br label %65

28:                                               ; preds = %19
  %29 = load ptr, ptr %6, align 8
  %30 = getelementptr inbounds nuw %struct.ObjectAddress, ptr %29, i32 0, i32 0
  %31 = load i32, ptr %30, align 4
  %32 = load ptr, ptr %7, align 8
  %33 = getelementptr inbounds nuw %struct.ObjectAddress, ptr %32, i32 0, i32 0
  %34 = load i32, ptr %33, align 4
  %35 = icmp ult i32 %31, %34
  br i1 %35, label %36, label %37

36:                                               ; preds = %28
  store i32 -1, ptr %3, align 4
  store i32 1, ptr %8, align 4
  br label %65

37:                                               ; preds = %28
  %38 = load ptr, ptr %6, align 8
  %39 = getelementptr inbounds nuw %struct.ObjectAddress, ptr %38, i32 0, i32 0
  %40 = load i32, ptr %39, align 4
  %41 = load ptr, ptr %7, align 8
  %42 = getelementptr inbounds nuw %struct.ObjectAddress, ptr %41, i32 0, i32 0
  %43 = load i32, ptr %42, align 4
  %44 = icmp ugt i32 %40, %43
  br i1 %44, label %45, label %46

45:                                               ; preds = %37
  store i32 1, ptr %3, align 4
  store i32 1, ptr %8, align 4
  br label %65

46:                                               ; preds = %37
  %47 = load ptr, ptr %6, align 8
  %48 = getelementptr inbounds nuw %struct.ObjectAddress, ptr %47, i32 0, i32 2
  %49 = load i32, ptr %48, align 4
  %50 = load ptr, ptr %7, align 8
  %51 = getelementptr inbounds nuw %struct.ObjectAddress, ptr %50, i32 0, i32 2
  %52 = load i32, ptr %51, align 4
  %53 = icmp ult i32 %49, %52
  br i1 %53, label %54, label %55

54:                                               ; preds = %46
  store i32 -1, ptr %3, align 4
  store i32 1, ptr %8, align 4
  br label %65

55:                                               ; preds = %46
  %56 = load ptr, ptr %6, align 8
  %57 = getelementptr inbounds nuw %struct.ObjectAddress, ptr %56, i32 0, i32 2
  %58 = load i32, ptr %57, align 4
  %59 = load ptr, ptr %7, align 8
  %60 = getelementptr inbounds nuw %struct.ObjectAddress, ptr %59, i32 0, i32 2
  %61 = load i32, ptr %60, align 4
  %62 = icmp ugt i32 %58, %61
  br i1 %62, label %63, label %64

63:                                               ; preds = %55
  store i32 1, ptr %3, align 4
  store i32 1, ptr %8, align 4
  br label %65

64:                                               ; preds = %55
  store i32 0, ptr %3, align 4
  store i32 1, ptr %8, align 4
  br label %65

65:                                               ; preds = %64, %63, %54, %45, %36, %27, %18
  call void @llvm.lifetime.end.p0(i64 8, ptr %7) #8
  call void @llvm.lifetime.end.p0(i64 8, ptr %6) #8
  %66 = load i32, ptr %3, align 4
  ret i32 %66
}